target datalayout = "e-m:e-p270:32:32-p271:32:32-p272:64:64-i64:64-i128:128-f80:128-n8:16:32:64-S128"
target triple = "x86_64-pc-linux-gnu"

%struct.ThreadData = type { ptr, ptr }
%struct.AVFilterLink = type { ptr, ptr, ptr, ptr, i32, i32, i32, i32, %struct.AVRational, i32, i32, i32, %struct.AVChannelLayout, %struct.AVRational, ptr, i32, %struct.AVFilterFormatsConfig, %struct.AVFilterFormatsConfig }
%struct.AVChannelLayout = type { i32, i32, %union.anon.1, ptr }
%union.anon.1 = type { i64 }
%struct.AVRational = type { i32, i32 }
%struct.AVFilterFormatsConfig = type { ptr, ptr, ptr, ptr, ptr }
%struct.AVFilterContext = type { ptr, ptr, ptr, ptr, ptr, i32, ptr, ptr, i32, ptr, ptr, i32, i32, ptr, ptr, ptr, ptr, i32, ptr, i32, i32 }
%struct.ExposureContext = type { ptr, float, float, float, ptr }
%struct.AVFrame = type { [8 x ptr], [8 x i32], ptr, i32, i32, i32, i32, i32, %struct.AVRational, i64, i64, %struct.AVRational, i32, ptr, i32, i32, [8 x ptr], ptr, i32, ptr, i32, i32, i32, i32, i32, i32, i32, i64, ptr, i32, ptr, ptr, i64, i64, i64, i64, ptr, %struct.AVChannelLayout, i64 }

; Function Attrs: nounwind uwtable
define internal i32 @filter_frame(ptr noundef %0, ptr noundef %1) #1 {
  %3 = alloca i32, align 4
  %4 = alloca ptr, align 8
  %5 = alloca ptr, align 8
  %6 = alloca ptr, align 8
  %7 = alloca ptr, align 8
  %8 = alloca ptr, align 8
  %9 = alloca float, align 4
  %10 = alloca %struct.ThreadData, align 8
  %11 = alloca ptr, align 8
  %12 = alloca i32, align 4
  store ptr %0, ptr %4, align 8, !tbaa !4
  store ptr %1, ptr %5, align 8, !tbaa !9
  call void @llvm.lifetime.start.p0(i64 8, ptr %6) #7
  %13 = load ptr, ptr %4, align 8, !tbaa !4
  %14 = getelementptr inbounds nuw %struct.AVFilterLink, ptr %13, i32 0, i32 2
  %15 = load ptr, ptr %14, align 8, !tbaa !11
  store ptr %15, ptr %6, align 8, !tbaa !23
  call void @llvm.lifetime.start.p0(i64 8, ptr %7) #7
  %16 = load ptr, ptr %6, align 8, !tbaa !23
  %17 = getelementptr inbounds nuw %struct.AVFilterContext, ptr %16, i32 0, i32 7
  %18 = load ptr, ptr %17, align 8, !tbaa !24
  %19 = getelementptr inbounds ptr, ptr %18, i64 0
  %20 = load ptr, ptr %19, align 8, !tbaa !4
  store ptr %20, ptr %7, align 8, !tbaa !4
  call void @llvm.lifetime.start.p0(i64 8, ptr %8) #7
  %21 = load ptr, ptr %6, align 8, !tbaa !23
  %22 = getelementptr inbounds nuw %struct.AVFilterContext, ptr %21, i32 0, i32 9
  %23 = load ptr, ptr %22, align 8, !tbaa !34
  store ptr %23, ptr %8, align 8, !tbaa !35
  call void @llvm.lifetime.start.p0(i64 4, ptr %9) #7
  %24 = load ptr, ptr %8, align 8, !tbaa !35
  %25 = getelementptr inbounds nuw %struct.ExposureContext, ptr %24, i32 0, i32 1
  %26 = load float, ptr %25, align 8, !tbaa !37
  %27 = fneg nsz float %26
  %28 = call nsz float @llvm.exp2.f32(float %27)
  %29 = load ptr, ptr %8, align 8, !tbaa !35
  %30 = getelementptr inbounds nuw %struct.ExposureContext, ptr %29, i32 0, i32 2
  %31 = load float, ptr %30, align 4, !tbaa !40
  %32 = fsub nsz float %28, %31
  %33 = call nsz float @llvm.fabs.f32(float %32)
  store float %33, ptr %9, align 4, !tbaa !41
  call void @llvm.lifetime.start.p0(i64 16, ptr %10) #7
  call void @llvm.lifetime.start.p0(i64 8, ptr %11) #7
  %34 = load ptr, ptr %5, align 8, !tbaa !9
  %35 = call i32 @av_frame_is_writable(ptr noundef %34)
  %36 = icmp ne i32 %35, 0
  br i1 %36, label %37, label %39

37:                                               ; preds = %2
  %38 = load ptr, ptr %5, align 8, !tbaa !9
  store ptr %38, ptr %11, align 8, !tbaa !9
  br label %55

39:                                               ; preds = %2
  %40 = load ptr, ptr %7, align 8, !tbaa !4
  %41 = load ptr, ptr %7, align 8, !tbaa !4
  %42 = getelementptr inbounds nuw %struct.AVFilterLink, ptr %41, i32 0, i32 6
  %43 = load i32, ptr %42, align 8, !tbaa !42
  %44 = load ptr, ptr %7, align 8, !tbaa !4
  %45 = getelementptr inbounds nuw %struct.AVFilterLink, ptr %44, i32 0, i32 7
  %46 = load i32, ptr %45, align 4, !tbaa !43
  %47 = call ptr @ff_get_video_buffer(ptr noundef %40, i32 noundef %43, i32 noundef %46)
  store ptr %47, ptr %11, align 8, !tbaa !9
  %48 = load ptr, ptr %11, align 8, !tbaa !9
  %49 = icmp ne ptr %48, null
  br i1 %49, label %51, label %50

50:                                               ; preds = %39
  call void @av_frame_free(ptr noundef %5)
  store i32 -12, ptr %3, align 4
  store i32 1, ptr %12, align 4
  br label %99

51:                                               ; preds = %39
  %52 = load ptr, ptr %11, align 8, !tbaa !9
  %53 = load ptr, ptr %5, align 8, !tbaa !9
  %54 = call i32 @av_frame_copy_props(ptr noundef %52, ptr noundef %53)
  br label %55

55:                                               ; preds = %51, %37
  %56 = load float, ptr %9, align 4, !tbaa !41
  %57 = fcmp nsz ogt float %56, 0.000000e+00
  br i1 %57, label %58, label %60

58:                                               ; preds = %55
  %59 = load float, ptr %9, align 4, !tbaa !41
  br label %61

60:                                               ; preds = %55
  br label %61

61:                                               ; preds = %60, %58
  %62 = phi nsz float [ %59, %58 ], [ 0x3F50000000000000, %60 ]
  store float %62, ptr %9, align 4, !tbaa !41
  %63 = load float, ptr %9, align 4, !tbaa !41
  %64 = fdiv nsz float 1.000000e+00, %63
  %65 = load ptr, ptr %8, align 8, !tbaa !35
  %66 = getelementptr inbounds nuw %struct.ExposureContext, ptr %65, i32 0, i32 3
  store float %64, ptr %66, align 8, !tbaa !44
  %67 = load ptr, ptr %11, align 8, !tbaa !9
  %68 = getelementptr inbounds nuw %struct.ThreadData, ptr %10, i32 0, i32 0
  store ptr %67, ptr %68, align 8, !tbaa !45
  %69 = load ptr, ptr %5, align 8, !tbaa !9
  %70 = getelementptr inbounds nuw %struct.ThreadData, ptr %10, i32 0, i32 1
  store ptr %69, ptr %70, align 8, !tbaa !47
  %71 = load ptr, ptr %6, align 8, !tbaa !23
  %72 = load ptr, ptr %8, align 8, !tbaa !35
  %73 = getelementptr inbounds nuw %struct.ExposureContext, ptr %72, i32 0, i32 4
  %74 = load ptr, ptr %73, align 8, !tbaa !48
  %75 = load ptr, ptr %11, align 8, !tbaa !9
  %76 = getelementptr inbounds nuw %struct.AVFrame, ptr %75, i32 0, i32 4
  %77 = load i32, ptr %76, align 4, !tbaa !49
  %78 = load ptr, ptr %6, align 8, !tbaa !23
  %79 = call i32 @ff_filter_get_nb_threads(ptr noundef %78) #8
  %80 = icmp sgt i32 %77, %79
  br i1 %80, label %81, label %84

81:                                               ; preds = %61
  %82 = load ptr, ptr %6, align 8, !tbaa !23
  %83 = call i32 @ff_filter_get_nb_threads(ptr noundef %82) #8
  br label %88

84:                                               ; preds = %61
  %85 = load ptr, ptr %11, align 8, !tbaa !9
  %86 = getelementptr inbounds nuw %struct.AVFrame, ptr %85, i32 0, i32 4
  %87 = load i32, ptr %86, align 4, !tbaa !49
  br label %88

88:                                               ; preds = %84, %81
  %89 = phi i32 [ %83, %81 ], [ %87, %84 ]
  %90 = call i32 @ff_filter_execute(ptr noundef %71, ptr noundef %74, ptr noundef %10, ptr noundef null, i32 noundef %89)
  %91 = load ptr, ptr %11, align 8, !tbaa !9
  %92 = load ptr, ptr %5, align 8, !tbaa !9
  %93 = icmp ne ptr %91, %92
  br i1 %93, label %94, label %95

94:                                               ; preds = %88
  call void @av_frame_free(ptr noundef %5)
  br label %95

95:                                               ; preds = %94, %88
  %96 = load ptr, ptr %7, align 8, !tbaa !4
  %97 = load ptr, ptr %11, align 8, !tbaa !9
  %98 = call i32 @ff_filter_frame(ptr noundef %96, ptr noundef %97)
  store i32 %98, ptr %3, align 4
  store i32 1, ptr %12, align 4
  br label %99

99:                                               ; preds = %95, %50
  call void @llvm.lifetime.end.p0(i64 8, ptr %11) #7
  call void @llvm.lifetime.end.p0(i64 16, ptr %10) #7
  call void @llvm.lifetime.end.p0(i64 4, ptr %9) #7
  call void @llvm.lifetime.end.p0(i64 8, ptr %8) #7
  call void @llvm.lifetime.end.p0(i64 8, ptr %7) #7
  call void @llvm.lifetime.end.p0(i64 8, ptr %6) #7
  %100 = load i32, ptr %3, align 4
  ret i32 %100
}