; Function Attrs: nounwind uwtable
define internal i32 @filter_frame(ptr noundef readonly captures(none) %0, ptr noundef %1) #1 {
  %3 = alloca ptr, align 8
  %4 = alloca %struct.ThreadData, align 8
  store ptr %1, ptr %3, align 8, !tbaa !4
  %5 = getelementptr inbounds nuw i8, ptr %0, i64 16
  %6 = load ptr, ptr %5, align 8, !tbaa !9
  %7 = getelementptr inbounds nuw i8, ptr %6, i64 56
  %8 = load ptr, ptr %7, align 8, !tbaa !21
  %9 = load ptr, ptr %8, align 8, !tbaa !31
  %10 = getelementptr inbounds nuw i8, ptr %6, i64 72
  %11 = load ptr, ptr %10, align 8, !tbaa !33
  %12 = getelementptr inbounds nuw i8, ptr %11, i64 8
  %13 = load float, ptr %12, align 8, !tbaa !34
  %14 = fneg nsz float %13
  %15 = tail call nsz float @llvm.exp2.f32(float %14)
  %16 = getelementptr inbounds nuw i8, ptr %11, i64 12
  %17 = load float, ptr %16, align 4, !tbaa !37
  %18 = fsub nsz float %15, %17
  %19 = tail call nsz float @llvm.fabs.f32(float %18)
  call void @llvm.lifetime.start.p0(i64 16, ptr nonnull %4) #9
  %20 = tail call i32 @av_frame_is_writable(ptr noundef %1) #9
  %.not = icmp eq i32 %20, 0
  br i1 %.not, label %21, label %30

21:                                               ; preds = %2
  %22 = getelementptr inbounds nuw i8, ptr %9, i64 40
  %23 = load i32, ptr %22, align 8, !tbaa !38
  %24 = getelementptr inbounds nuw i8, ptr %9, i64 44
  %25 = load i32, ptr %24, align 4, !tbaa !39
  %26 = tail call ptr @ff_get_video_buffer(ptr noundef %9, i32 noundef %23, i32 noundef %25) #9
  %.not28 = icmp eq ptr %26, null
  br i1 %.not28, label %27, label %28

27:                                               ; preds = %21
  call void @av_frame_free(ptr noundef nonnull %3) #9
  br label %46

28:                                               ; preds = %21
  %29 = tail call i32 @av_frame_copy_props(ptr noundef nonnull %26, ptr noundef %1) #9
  br label %30

30:                                               ; preds = %2, %28
  %.0 = phi ptr [ %26, %28 ], [ %1, %2 ]
  %31 = fcmp nsz one float %18, 0.000000e+00
  %32 = fdiv nsz float 1.000000e+00, %19
  %33 = select i1 %31, float %32, float 1.024000e+03
  %34 = getelementptr inbounds nuw i8, ptr %11, i64 16
  store float %33, ptr %34, align 8, !tbaa !40
  store ptr %.0, ptr %4, align 8, !tbaa !41
  %35 = getelementptr inbounds nuw i8, ptr %4, i64 8
  store ptr %1, ptr %35, align 8, !tbaa !43
  %36 = getelementptr inbounds nuw i8, ptr %11, i64 24
  %37 = load ptr, ptr %36, align 8, !tbaa !44
  %38 = getelementptr inbounds nuw i8, ptr %.0, i64 108
  %39 = load i32, ptr %38, align 4, !tbaa !45
  %40 = tail call i32 @ff_filter_get_nb_threads(ptr noundef nonnull %6) #10
  %. = tail call i32 @llvm.smin.i32(i32 %39, i32 %40)
  %41 = call i32 @ff_filter_execute(ptr noundef nonnull %6, ptr noundef %37, ptr noundef nonnull %4, ptr noundef null, i32 noundef %.) #9
  %42 = load ptr, ptr %3, align 8, !tbaa !4
  %.not29 = icmp eq ptr %.0, %42
  br i1 %.not29, label %44, label %43

43:                                               ; preds = %30
  call void @av_frame_free(ptr noundef nonnull %3) #9
  br label %44

44:                                               ; preds = %43, %30
  %45 = call i32 @ff_filter_frame(ptr noundef %9, ptr noundef nonnull %.0) #9
  br label %46

46:                                               ; preds = %44, %27
  %.024 = phi i32 [ %45, %44 ], [ -12, %27 ]
  call void @llvm.lifetime.end.p0(i64 16, ptr nonnull %4) #9
  ret i32 %.024
}